target datalayout = "e-m:e-p270:32:32-p271:32:32-p272:64:64-i64:64-i128:128-f80:128-n8:16:32:64-S128"
target triple = "x86_64-pc-linux-gnu"

%struct.ParseContext_ = type { %struct.TokenData, i32, %union.SourceSpan, %union.SourceSpan, ptr, %struct.Lexer }
%struct.TokenData = type { ptr, i64, %union.anon.86 }
%union.anon.86 = type { %struct.anon.89 }
%struct.anon.89 = type { %struct.Int128_, i8 }
%struct.Int128_ = type { i64, i64 }
%union.SourceSpan = type { i64 }
%struct.Lexer = type { ptr, ptr, ptr, ptr, i32, i32, ptr, ptr, ptr, %struct.TokenData, %union.SourceSpan, i32, i32 }
%struct.Expr_ = type { ptr, %union.SourceSpan, i16, %union.anon.30 }
%union.anon.30 = type { %struct.ExprAnySwitch }
%struct.ExprAnySwitch = type { i8, %union.anon.32 }
%union.anon.32 = type { %struct.anon.33 }
%struct.anon.33 = type { ptr, %union.SourceSpan, ptr }
%struct.anon.0 = type { i16, i8, i8, i32 }
%struct.ExprBuiltin = type { ptr, i32 }

@poisoned_expr = external global ptr, align 8
@.str.31 = private unnamed_addr constant [50 x i8] c"Unexpected '$$', did you mean to write a builtin?\00", align 1

; Function Attrs: nounwind uwtable
define internal i64 @extend_span_with_token(i64 %0, i64 %1) #0 {
  %3 = alloca %union.SourceSpan, align 8
  %4 = alloca %union.SourceSpan, align 8
  %5 = alloca %union.SourceSpan, align 8
  %6 = getelementptr inbounds %union.SourceSpan, ptr %4, i32 0, i32 0
  store i64 %0, ptr %6, align 8
  %7 = getelementptr inbounds %union.SourceSpan, ptr %5, i32 0, i32 0
  store i64 %1, ptr %7, align 8
  %8 = getelementptr inbounds %struct.anon.0, ptr %4, i32 0, i32 3
  %9 = load i32, ptr %8, align 4
  %10 = getelementptr inbounds %struct.anon.0, ptr %5, i32 0, i32 3
  %11 = load i32, ptr %10, align 4
  %12 = icmp ne i32 %9, %11
  br i1 %12, label %13, label %14

13:                                               ; preds = %2
  call void @llvm.memcpy.p0.p0.i64(ptr align 8 %3, ptr align 8 %4, i64 8, i1 false)
  br label %28

14:                                               ; preds = %2
  %15 = getelementptr inbounds %struct.anon.0, ptr %5, i32 0, i32 2
  %16 = load i8, ptr %15, align 1
  %17 = zext i8 %16 to i32
  %18 = getelementptr inbounds %struct.anon.0, ptr %5, i32 0, i32 1
  %19 = load i8, ptr %18, align 2
  %20 = zext i8 %19 to i32
  %21 = add nsw i32 %17, %20
  %22 = getelementptr inbounds %struct.anon.0, ptr %4, i32 0, i32 2
  %23 = load i8, ptr %22, align 1
  %24 = zext i8 %23 to i32
  %25 = sub nsw i32 %21, %24
  %26 = trunc i32 %25 to i8
  %27 = getelementptr inbounds %struct.anon.0, ptr %4, i32 0, i32 1
  store i8 %26, ptr %27, align 2
  call void @llvm.memcpy.p0.p0.i64(ptr align 8 %3, ptr align 8 %4, i64 8, i1 false)
  br label %28

28:                                               ; preds = %14, %13
  %29 = getelementptr inbounds %union.SourceSpan, ptr %3, i32 0, i32 0
  %30 = load i64, ptr %29, align 8
  ret i64 %30
}

; Function Attrs: nounwind uwtable
define internal ptr @parse_builtin(ptr noundef %0, ptr noundef %1) #0 {
  %3 = alloca i1, align 1
  %4 = alloca i32, align 4
  %5 = alloca ptr, align 8
  %6 = alloca ptr, align 8
  %7 = alloca ptr, align 8
  %8 = alloca i32, align 4
  %9 = alloca ptr, align 8
  %10 = alloca ptr, align 8
  %11 = alloca ptr, align 8
  %12 = alloca ptr, align 8
  %13 = alloca %union.SourceSpan, align 8
  store ptr %0, ptr %10, align 8
  store ptr %1, ptr %11, align 8
  %14 = load ptr, ptr %10, align 8
  %15 = getelementptr inbounds %struct.ParseContext_, ptr %14, i32 0, i32 2
  %16 = getelementptr inbounds %union.SourceSpan, ptr %15, i32 0, i32 0
  %17 = load i64, ptr %16, align 8
  %18 = call ptr @expr_new(i32 noundef 6, i64 %17)
  store ptr %18, ptr %12, align 8
  %19 = load ptr, ptr %10, align 8
  store ptr %19, ptr %5, align 8
  %20 = load ptr, ptr %5, align 8
  %21 = getelementptr inbounds %struct.ParseContext_, ptr %20, i32 0, i32 5
  %22 = getelementptr inbounds %struct.Lexer, ptr %21, i32 0, i32 11
  %23 = load i32, ptr %22, align 8
  store i32 %23, ptr %4, align 4
  %24 = load i32, ptr %4, align 4
  switch i32 %24, label %26 [
    i32 66, label %25
    i32 64, label %25
    i32 65, label %25
  ]

25:                                               ; preds = %2, %2, %2
  store i1 true, ptr %3, align 1
  br label %27

26:                                               ; preds = %2
  store i1 false, ptr %3, align 1
  br label %27

27:                                               ; preds = %26, %25
  %28 = load i1, ptr %3, align 1
  br i1 %28, label %35, label %29

29:                                               ; preds = %27
  %30 = load ptr, ptr %10, align 8
  %31 = getelementptr inbounds %struct.ParseContext_, ptr %30, i32 0, i32 2
  %32 = getelementptr inbounds %union.SourceSpan, ptr %31, i32 0, i32 0
  %33 = load i64, ptr %32, align 8
  call void (i64, ptr, ...) @sema_error_at(i64 %33, ptr noundef @.str.31)
  %34 = load ptr, ptr @poisoned_expr, align 8
  store ptr %34, ptr %9, align 8
  br label %69

35:                                               ; preds = %27
  %36 = load ptr, ptr %10, align 8
  store ptr %36, ptr %7, align 8
  store i32 37, ptr %8, align 4
  %37 = load ptr, ptr %7, align 8
  call void @advance(ptr noundef %37) #5
  %38 = load ptr, ptr %10, align 8
  store ptr %38, ptr %6, align 8
  %39 = load ptr, ptr %6, align 8
  %40 = getelementptr inbounds %struct.TokenData, ptr %39, i32 0, i32 2
  %41 = load ptr, ptr %40, align 8
  %42 = load ptr, ptr %12, align 8
  %43 = getelementptr inbounds %struct.Expr_, ptr %42, i32 0, i32 3
  %44 = getelementptr inbounds %struct.ExprBuiltin, ptr %43, i32 0, i32 0
  store ptr %41, ptr %44, align 8
  %45 = load ptr, ptr %12, align 8
  %46 = getelementptr inbounds %struct.Expr_, ptr %45, i32 0, i32 1
  %47 = load ptr, ptr %12, align 8
  %48 = getelementptr inbounds %struct.Expr_, ptr %47, i32 0, i32 1
  %49 = load ptr, ptr %10, align 8
  %50 = getelementptr inbounds %struct.ParseContext_, ptr %49, i32 0, i32 2
  %51 = getelementptr inbounds %union.SourceSpan, ptr %48, i32 0, i32 0
  %52 = load i64, ptr %51, align 8
  %53 = getelementptr inbounds %union.SourceSpan, ptr %50, i32 0, i32 0
  %54 = load i64, ptr %53, align 8
  %55 = call i64 @extend_span_with_token(i64 %52, i64 %54)
  %56 = getelementptr inbounds %union.SourceSpan, ptr %13, i32 0, i32 0
  store i64 %55, ptr %56, align 8
  call void @llvm.memcpy.p0.p0.i64(ptr align 8 %46, ptr align 8 %13, i64 8, i1 false)
  %57 = load ptr, ptr %10, align 8
  %58 = call zeroext i1 @try_consume(ptr noundef %57, i32 noundef 65)
  br i1 %58, label %59, label %66

59:                                               ; preds = %35
  %60 = load ptr, ptr %12, align 8
  %61 = getelementptr inbounds %struct.Expr_, ptr %60, i32 0, i32 2
  %62 = load i16, ptr %61, align 8
  %63 = and i16 %62, -256
  %64 = or i16 %63, 11
  store i16 %64, ptr %61, align 8
  %65 = load ptr, ptr %12, align 8
  store ptr %65, ptr %9, align 8
  br label %69

66:                                               ; preds = %35
  %67 = load ptr, ptr %10, align 8
  call void @advance(ptr noundef %67)
  %68 = load ptr, ptr %12, align 8
  store ptr %68, ptr %9, align 8
  br label %69

69:                                               ; preds = %66, %59, %29
  %70 = load ptr, ptr %9, align 8
  ret ptr %70
}