; Function Attrs: nounwind uwtable
define internal ptr @parse_builtin(ptr noundef %0, ptr nocapture readnone %1) #1 {
  %3 = getelementptr inbounds i8, ptr %0, i64 48
  %4 = load i64, ptr %3, align 8
  %5 = tail call ptr @expr_new(i32 noundef 6, i64 %4) #8
  %6 = getelementptr inbounds i8, ptr %0, i64 184
  %7 = load i32, ptr %6, align 8
  %.off = add i32 %7, -64
  %switch = icmp ult i32 %.off, 3
  br i1 %switch, label %11, label %8

8:                                                ; preds = %2
  %9 = load i64, ptr %3, align 8
  tail call void (i64, ptr, ...) @sema_error_at(i64 %9, ptr noundef nonnull @.str.31) #8
  %10 = load ptr, ptr @poisoned_expr, align 8
  br label %35

11:                                               ; preds = %2
  tail call void @advance(ptr noundef nonnull %0) #8
  %12 = getelementptr inbounds i8, ptr %0, i64 16
  %13 = load ptr, ptr %12, align 8
  %14 = getelementptr inbounds i8, ptr %5, i64 24
  store ptr %13, ptr %14, align 8
  %15 = getelementptr inbounds i8, ptr %5, i64 8
  %16 = load i64, ptr %15, align 8
  %17 = load i64, ptr %3, align 8
  %.not.unshifted.i = xor i64 %17, %16
  %.not.i = icmp ult i64 %.not.unshifted.i, 4294967296
  br i1 %.not.i, label %19, label %18

18:                                               ; preds = %11
  %.sroa.33.0.extract.shift.i = lshr i64 %16, 16
  br label %extend_span_with_token.exit

19:                                               ; preds = %11
  %.sroa.4.0.extract.shift.i = lshr i64 %16, 24
  %20 = trunc i64 %17 to i32
  %21 = lshr i32 %20, 24
  %22 = lshr i32 %20, 16
  %23 = trunc i64 %.sroa.4.0.extract.shift.i to i32
  %24 = sub i32 %22, %23
  %25 = add i32 %24, %21
  %26 = zext i32 %25 to i64
  br label %extend_span_with_token.exit

extend_span_with_token.exit:                      ; preds = %18, %19
  %.sroa.311.0.i = phi i64 [ %.sroa.33.0.extract.shift.i, %18 ], [ %26, %19 ]
  %.sroa.311.0.insert.ext.i = shl nuw i64 %.sroa.311.0.i, 16
  %.sroa.311.0.insert.shift.i = and i64 %.sroa.311.0.insert.ext.i, 16711680
  %27 = and i64 %16, -16711681
  %.sroa.010.0.insert.insert.i = or disjoint i64 %.sroa.311.0.insert.shift.i, %27
  store i64 %.sroa.010.0.insert.insert.i, ptr %15, align 8
  %28 = tail call zeroext i1 @try_consume(ptr noundef nonnull %0, i32 noundef 65) #8
  br i1 %28, label %29, label %34

29:                                               ; preds = %extend_span_with_token.exit
  %30 = getelementptr inbounds i8, ptr %5, i64 16
  %31 = load i16, ptr %30, align 8
  %32 = and i16 %31, -256
  %33 = or disjoint i16 %32, 11
  store i16 %33, ptr %30, align 8
  br label %35

34:                                               ; preds = %extend_span_with_token.exit
  tail call void @advance(ptr noundef nonnull %0) #8
  br label %35

35:                                               ; preds = %34, %29, %8
  %.019 = phi ptr [ %5, %29 ], [ %5, %34 ], [ %10, %8 ]
  ret ptr %.019
}